(dp0
S'MilitaryParade'
p1
I52
sS'TrampolineJumping'
p2
I93
sS'SkyDiving'
p3
I82
sS'SalsaSpin'
p4
I76
sS'CuttingInKitchen'
p5
I24
sS'Knitting'
p6
I49
sS'PlayingViolin'
p7
I66
sS'YoYo'
p8
I100
sS'PlayingDhol'
p9
I60
sS'PlayingCello'
p10
I58
sS'Bowling'
p11
I15
sS'UnevenBars'
p12
I95
sS'BalanceBeam'
p13
I4
sS'PlayingDaf'
p14
I59
sS'SumoWrestling'
p15
I86
sS'PushUps'
p16
I71
sS'FloorGymnastics'
p17
I29
sS'ApplyLipstick'
p18
I1
sS'BreastStroke'
p19
I18
sS'GolfSwing'
p20
I32
sS'HorseRiding'
p21
I41
sS'PlayingFlute'
p22
I61
sS'PizzaTossing'
p23
I57
sS'CleanAndJerk'
p24
I20
sS'WritingOnBoard'
p25
I99
sS'CricketShot'
p26
I23
sS'FieldHockeyPenalty'
p27
I28
sS'HammerThrow'
p28
I35
sS'BodyWeightSquats'
p29
I14
sS'CliffDiving'
p30
I21
sS'Typing'
p31
I94
sS'MoppingFloor'
p32
I54
sS'TaiChi'
p33
I90
sS'PlayingPiano'
p34
I63
sS'Punch'
p35
I70
sS'Nunchucks'
p36
I55
sS'RopeClimbing'
p37
I74
sS'Swing'
p38
I88
sS'ApplyEyeMakeup'
p39
I0
sS'Rafting'
p40
I72
sS'PlayingGuitar'
p41
I62
sS'VolleyballSpiking'
p42
I96
sS'ShavingBeard'
p43
I77
sS'JugglingBalls'
p44
I45
sS'Diving'
p45
I25
sS'JumpingJack'
p46
I46
sS'PoleVault'
p47
I67
sS'SkateBoarding'
p48
I79
sS'BoxingPunchingBag'
p49
I16
sS'IceDancing'
p50
I43
sS'WallPushups'
p51
I98
sS'SoccerPenalty'
p52
I84
sS'Drumming'
p53
I26
sS'JumpRope'
p54
I47
sS'HeadMassage'
p55
I38
sS'PlayingTabla'
p56
I65
sS'TableTennisShot'
p57
I89
sS'PommelHorse'
p58
I68
sS'HighJump'
p59
I39
sS'BasketballDunk'
p60
I8
sS'BoxingSpeedBag'
p61
I17
sS'PullUps'
p62
I69
sS'FrisbeeCatch'
p63
I30
sS'RockClimbingIndoor'
p64
I73
sS'BlowingCandles'
p65
I13
sS'Skiing'
p66
I80
sS'WalkingWithDog'
p67
I97
sS'Basketball'
p68
I7
sS'SoccerJuggling'
p69
I83
sS'Fencing'
p70
I27
sS'Billiards'
p71
I11
sS'BaseballPitch'
p72
I6
sS'BlowDryHair'
p73
I12
sS'CricketBowling'
p74
I22
sS'BandMarching'
p75
I5
sS'PlayingSitar'
p76
I64
sS'ThrowDiscus'
p77
I92
sS'StillRings'
p78
I85
sS'Lunges'
p79
I51
sS'Skijet'
p80
I81
sS'BabyCrawling'
p81
I3
sS'Mixing'
p82
I53
sS'Hammering'
p83
I34
sS'Shotput'
p84
I78
sS'Archery'
p85
I2
sS'Surfing'
p86
I87
sS'FrontCrawl'
p87
I31
sS'HulaHoop'
p88
I42
sS'JavelinThrow'
p89
I44
sS'Rowing'
p90
I75
sS'Kayaking'
p91
I48
sS'ParallelBars'
p92
I56
sS'HorseRace'
p93
I40
sS'HandstandWalking'
p94
I37
sS'BrushingTeeth'
p95
I19
sS'LongJump'
p96
I50
sS'Biking'
p97
I10
sS'BenchPress'
p98
I9
sS'Haircut'
p99
I33
sS'TennisSwing'
p100
I91
sS'HandStandPushups'
p101
I36
s.