(dp0
S'image_weights'
p1
(dp2
S'fc6'
p3
(dp4
I0
(dp5
S'max'
p6
cnumpy.core.multiarray
scalar
p7
(cnumpy
dtype
p8
(S'f4'
p9
I0
I1
tp10
Rp11
(I3
S'<'
p12
NNNI-1
I-1
I0
tp13
bS'NG\x89\xbc'
p14
tp15
Rp16
sS'min'
p17
g7
(g11
S'NG\x89\xbc'
p18
tp19
Rp20
ssI1
(dp21
g6
g7
(g11
S'+\xdaq<'
p22
tp23
Rp24
sg17
g7
(g11
S'+\xdaq<'
p25
tp26
Rp27
sssS'fc7'
p28
(dp29
I0
(dp30
g6
g7
(g11
S'\x00\x00\x00\x00'
p31
tp32
Rp33
sg17
g7
(g11
S'\x00\x00\x00\x00'
p34
tp35
Rp36
ssI1
(dp37
g6
g7
(g11
S'\x00\x00\x00\x00'
p38
tp39
Rp40
sg17
g7
(g11
S'\x00\x00\x00\x00'
p41
tp42
Rp43
sssS'conv3'
p44
(dp45
I0
(dp46
g6
g7
(g11
S's\xa4\xdd\xbd'
p47
tp48
Rp49
sg17
g7
(g11
S's\xa4\xdd\xbd'
p50
tp51
Rp52
ssI1
(dp53
g6
g7
(g11
S'\x1e]2='
p54
tp55
Rp56
sg17
g7
(g11
S'\x1e]2='
p57
tp58
Rp59
sssS'conv2'
p60
(dp61
I0
(dp62
g6
g7
(g11
S'\xe2\xf1\xee\xbd'
p63
tp64
Rp65
sg17
g7
(g11
S'\xe2\xf1\xee\xbd'
p66
tp67
Rp68
ssI1
(dp69
g6
g7
(g11
S'\xee6U='
p70
tp71
Rp72
sg17
g7
(g11
S'\xee6U='
p73
tp74
Rp75
sssS'conv1'
p76
(dp77
I0
(dp78
g6
g7
(g11
S'\x82X\x82\xbe'
p79
tp80
Rp81
sg17
g7
(g11
S'\x82X\x82\xbe'
p82
tp83
Rp84
ssI1
(dp85
g6
g7
(g11
S'\xf3hA\xbf'
p86
tp87
Rp88
sg17
g7
(g11
S'\xf3hA\xbf'
p89
tp90
Rp91
sssS'conv5'
p92
(dp93
I0
(dp94
g6
g7
(g11
S'\x12\xa6\x96\xbd'
p95
tp96
Rp97
sg17
g7
(g11
S'\x12\xa6\x96\xbd'
p98
tp99
Rp100
ssI1
(dp101
g6
g7
(g11
S'cl\x85\xbe'
p102
tp103
Rp104
sg17
g7
(g11
S'cl\x85\xbe'
p105
tp106
Rp107
sssS'conv4'
p108
(dp109
I0
(dp110
g6
g7
(g11
S'\xc1]\xab\xbd'
p111
tp112
Rp113
sg17
g7
(g11
S'\xc1]\xab\xbd'
p114
tp115
Rp116
ssI1
(dp117
g6
g7
(g11
S'\xd7s\xbc\xbd'
p118
tp119
Rp120
sg17
g7
(g11
S'\xd7s\xbc\xbd'
p121
tp122
Rp123
sssS'fc8-ucf'
p124
(dp125
I0
(dp126
g6
g7
(g11
S'\x00\x00\x00\x00'
p127
tp128
Rp129
sg17
g7
(g11
S'\x00\x00\x00\x00'
p130
tp131
Rp132
ssI1
(dp133
g6
g7
(g11
S'\x00\x00\x00\x00'
p134
tp135
Rp136
sg17
g7
(g11
S'\x00\x00\x00\x00'
p137
tp138
Rp139
ssssS'v_MilitaryParade_g05_c03'
p140
(dp141
S'lstm_blobs'
p142
(dp143
S'reshape-cm'
p144
(dp145
g6
g7
(g11
S'\x00\x00\x80?'
p146
tp147
Rp148
sg17
g7
(g11
S'\x00\x00\x00\x00'
p149
tp150
Rp151
ssS'lstm1'
p152
(dp153
g6
g7
(g11
S'N\xd6\x0f?'
p154
tp155
Rp156
sg17
g7
(g11
S'\xb6L\x13\xbf'
p157
tp158
Rp159
ssS'probs'
p160
(dp161
g6
g7
(g11
S'\x8d\xed\x95='
p162
tp163
Rp164
sg17
g7
(g11
S'\x86P\xb8:'
p165
tp166
Rp167
ssS'clip_markers'
p168
(dp169
g6
g7
(g11
S'\x00\x00\x80?'
p170
tp171
Rp172
sg17
g7
(g11
S'\x00\x00\x00\x00'
p173
tp174
Rp175
ssS'fc6-reshape'
p176
(dp177
g6
g7
(g11
S'i\xec\xdc?'
p178
tp179
Rp180
sg17
g7
(g11
S'\x00\x00\x00\x80'
p181
tp182
Rp183
ssS'data'
p184
(dp185
g6
g7
(g11
S'i\xec\xdc?'
p186
tp187
Rp188
sg17
g7
(g11
S'\x00\x00\x00\x80'
p189
tp190
Rp191
ssS'fc8-final'
p192
(dp193
g6
g7
(g11
S'\x8a\x1a\x13@'
p194
tp195
Rp196
sg17
g7
(g11
S'\xf8\xb2\xd3\xbf'
p197
tp198
Rp199
sssS'frame_extraction'
p200
(dp201
I0
(dp202
g6
g7
(g8
(S'u1'
p203
I0
I1
tp204
Rp205
(I3
S'|'
p206
NNNI-1
I-1
I0
tp207
bS'\xff'
p208
tp209
Rp210
sS'shape1'
p211
I320
sS'mean'
p212
g7
(g8
(S'f8'
p213
I0
I1
tp214
Rp215
(I3
S'<'
p216
NNNI-1
I-1
I0
tp217
bS'fffff\x07V@'
p218
tp219
Rp220
sS'shape0'
p221
I240
sg17
g7
(g205
S'\x00'
p222
tp223
Rp224
ssS'length'
p225
I85
sI84
(dp226
g6
g7
(g205
g208
tp227
Rp228
sg211
I320
sg212
g7
(g215
S'\xd8\x82-\xd8\xe2\xbeW@'
p229
tp230
Rp231
sg221
I240
sg17
g7
(g205
g222
tp232
Rp233
ssI15
(dp234
g6
g7
(g205
g208
tp235
Rp236
sg211
I320
sg212
g7
(g215
S'\xb7?\xc8P\t\xcaU@'
p237
tp238
Rp239
sg221
I240
sg17
g7
(g205
g222
tp240
Rp241
sssS'image_blobs'
p242
(dp243
S'fc6'
p244
(dp245
g6
g7
(g11
S'i\xec\xdc?'
p246
tp247
Rp248
sg17
g7
(g11
S'\x00\x00\x00\x80'
p249
tp250
Rp251
ssS'fc7'
p252
(dp253
g6
g7
(g11
S'\x00\x00\x00\x00'
p254
tp255
Rp256
sg17
g7
(g11
S'\x00\x00\x00\x00'
p257
tp258
Rp259
ssS'conv4'
p260
(dp261
g6
g7
(g11
S'\xbc\xe40?'
p262
tp263
Rp264
sg17
g7
(g11
S'\x00\x00\x00\x80'
p265
tp266
Rp267
ssS'probs'
p268
(dp269
g6
g7
(g11
S'\xc37"<'
p270
tp271
Rp272
sg17
g7
(g11
S'\xc37"<'
p273
tp274
Rp275
ssS'conv3'
p276
(dp277
g6
g7
(g11
S'\xe8\x98T?'
p278
tp279
Rp280
sg17
g7
(g11
S'\x00\x00\x00\x80'
p281
tp282
Rp283
ssS'conv2'
p284
(dp285
g6
g7
(g11
S'=\xeb,?'
p286
tp287
Rp288
sg17
g7
(g11
S'\x00\x00\x00\x80'
p289
tp290
Rp291
ssS'conv1'
p292
(dp293
g6
g7
(g11
S'K\xb1\xd9>'
p294
tp295
Rp296
sg17
g7
(g11
S'\x00\x00\x00\x80'
p297
tp298
Rp299
ssS'conv5'
p300
(dp301
g6
g7
(g11
S'\x1b\xd6|?'
p302
tp303
Rp304
sg17
g7
(g11
S'\x00\x00\x00\x80'
p305
tp306
Rp307
ssS'norm2'
p308
(dp309
g6
g7
(g11
S'\xef\xea,?'
p310
tp311
Rp312
sg17
g7
(g11
S'\x00\x00\x00\x80'
p313
tp314
Rp315
ssS'fc8-ucf'
p316
(dp317
g6
g7
(g11
S'\x00\x00\x00\x00'
p318
tp319
Rp320
sg17
g7
(g11
S'\x00\x00\x00\x00'
p321
tp322
Rp323
ssS'pool2'
p324
(dp325
g6
g7
(g11
S'=\xeb,?'
p326
tp327
Rp328
sg17
g7
(g11
S'\x00\x00\x00\x80'
p329
tp330
Rp331
ssS'pool1'
p332
(dp333
g6
g7
(g11
S'K\xb1\xd9>'
p334
tp335
Rp336
sg17
g7
(g11
S'\x00\x00\x00\x80'
p337
tp338
Rp339
ssS'data'
p340
(dp341
g6
g7
(g11
S'\x00\x00\x00\x00'
p342
tp343
Rp344
sg17
g7
(g11
S'\x00\x00\x00\x00'
p345
tp346
Rp347
ssS'norm1'
p348
(dp349
g6
g7
(g11
S'%\xb1\xd9>'
p350
tp351
Rp352
sg17
g7
(g11
S'\x00\x00\x00\x80'
p353
tp354
Rp355
ssS'pool5'
p356
(dp357
g6
g7
(g11
S'\x1b\xd6|?'
p358
tp359
Rp360
sg17
g7
(g11
S'\x00\x00\x00\x80'
p361
tp362
Rp363
ssssS'v_JugglingBalls_g01_c02'
p364
(dp365
g142
(dp366
S'reshape-cm'
p367
(dp368
g6
g7
(g11
S'\x00\x00\x80?'
p369
tp370
Rp371
sg17
g7
(g11
S'\x00\x00\x00\x00'
p372
tp373
Rp374
ssS'lstm1'
p375
(dp376
g6
g7
(g11
S'N\xd6\x0f?'
p377
tp378
Rp379
sg17
g7
(g11
S'\xb6L\x13\xbf'
p380
tp381
Rp382
ssS'probs'
p383
(dp384
g6
g7
(g11
S'\x8d\xed\x95='
p385
tp386
Rp387
sg17
g7
(g11
S'\x86P\xb8:'
p388
tp389
Rp390
ssS'clip_markers'
p391
(dp392
g6
g7
(g11
S'\x00\x00\x80?'
p393
tp394
Rp395
sg17
g7
(g11
S'\x00\x00\x00\x00'
p396
tp397
Rp398
ssS'fc6-reshape'
p399
(dp400
g6
g7
(g11
S'i\xec\xdc?'
p401
tp402
Rp403
sg17
g7
(g11
S'\x00\x00\x00\x80'
p404
tp405
Rp406
ssS'data'
p407
(dp408
g6
g7
(g11
S'i\xec\xdc?'
p409
tp410
Rp411
sg17
g7
(g11
S'\x00\x00\x00\x80'
p412
tp413
Rp414
ssS'fc8-final'
p415
(dp416
g6
g7
(g11
S'\x8a\x1a\x13@'
p417
tp418
Rp419
sg17
g7
(g11
S'\xf8\xb2\xd3\xbf'
p420
tp421
Rp422
sssg200
(dp423
I0
(dp424
g6
g7
(g205
g208
tp425
Rp426
sg211
I320
sg212
g7
(g215
S'Tv\x98\xba\xa4"`@'
p427
tp428
Rp429
sg221
I240
sg17
g7
(g205
g222
tp430
Rp431
ssg225
I248
sI247
(dp432
g6
g7
(g205
g208
tp433
Rp434
sg211
I320
sg212
g7
(g215
S'k\xe2Y\xd10\x03`@'
p435
tp436
Rp437
sg221
I240
sg17
g7
(g205
g222
tp438
Rp439
ssI15
(dp440
g6
g7
(g205
g208
tp441
Rp442
sg211
I320
sg212
g7
(g215
S'\x1c\xc7q\x1cO\x1e`@'
p443
tp444
Rp445
sg221
I240
sg17
g7
(g205
g222
tp446
Rp447
sssg242
(dp448
S'fc6'
p449
(dp450
g6
g7
(g11
S'i\xec\xdc?'
p451
tp452
Rp453
sg17
g7
(g11
S'\x00\x00\x00\x80'
p454
tp455
Rp456
ssS'fc7'
p457
(dp458
g6
g7
(g11
S'\x00\x00\x00\x00'
p459
tp460
Rp461
sg17
g7
(g11
S'\x00\x00\x00\x00'
p462
tp463
Rp464
ssS'conv4'
p465
(dp466
g6
g7
(g11
S'\xbc\xe40?'
p467
tp468
Rp469
sg17
g7
(g11
S'\x00\x00\x00\x80'
p470
tp471
Rp472
ssS'probs'
p473
(dp474
g6
g7
(g11
S'\xc37"<'
p475
tp476
Rp477
sg17
g7
(g11
S'\xc37"<'
p478
tp479
Rp480
ssS'conv3'
p481
(dp482
g6
g7
(g11
S'\xe8\x98T?'
p483
tp484
Rp485
sg17
g7
(g11
S'\x00\x00\x00\x80'
p486
tp487
Rp488
ssS'conv2'
p489
(dp490
g6
g7
(g11
S'=\xeb,?'
p491
tp492
Rp493
sg17
g7
(g11
S'\x00\x00\x00\x80'
p494
tp495
Rp496
ssS'conv1'
p497
(dp498
g6
g7
(g11
S'K\xb1\xd9>'
p499
tp500
Rp501
sg17
g7
(g11
S'\x00\x00\x00\x80'
p502
tp503
Rp504
ssS'conv5'
p505
(dp506
g6
g7
(g11
S'\x1b\xd6|?'
p507
tp508
Rp509
sg17
g7
(g11
S'\x00\x00\x00\x80'
p510
tp511
Rp512
ssS'norm2'
p513
(dp514
g6
g7
(g11
S'\xef\xea,?'
p515
tp516
Rp517
sg17
g7
(g11
S'\x00\x00\x00\x80'
p518
tp519
Rp520
ssS'fc8-ucf'
p521
(dp522
g6
g7
(g11
S'\x00\x00\x00\x00'
p523
tp524
Rp525
sg17
g7
(g11
S'\x00\x00\x00\x00'
p526
tp527
Rp528
ssS'pool2'
p529
(dp530
g6
g7
(g11
S'=\xeb,?'
p531
tp532
Rp533
sg17
g7
(g11
S'\x00\x00\x00\x80'
p534
tp535
Rp536
ssS'pool1'
p537
(dp538
g6
g7
(g11
S'K\xb1\xd9>'
p539
tp540
Rp541
sg17
g7
(g11
S'\x00\x00\x00\x80'
p542
tp543
Rp544
ssS'data'
p545
(dp546
g6
g7
(g11
S'\x00\x00\x00\x00'
p547
tp548
Rp549
sg17
g7
(g11
S'\x00\x00\x00\x00'
p550
tp551
Rp552
ssS'norm1'
p553
(dp554
g6
g7
(g11
S'%\xb1\xd9>'
p555
tp556
Rp557
sg17
g7
(g11
S'\x00\x00\x00\x80'
p558
tp559
Rp560
ssS'pool5'
p561
(dp562
g6
g7
(g11
S'\x1b\xd6|?'
p563
tp564
Rp565
sg17
g7
(g11
S'\x00\x00\x00\x80'
p566
tp567
Rp568
ssssS'lstm_weights'
p569
(dp570
S'fc8-final'
p571
(dp572
I0
(dp573
g6
g7
(g11
S'u\x98\xeb='
p574
tp575
Rp576
sg17
g7
(g11
S'\x9b\x98\xe3\xbd'
p577
tp578
Rp579
ssI1
(dp580
g6
g7
(g11
S'R\xe6p>'
p581
tp582
Rp583
sg17
g7
(g11
S'@y^\xbe'
p584
tp585
Rp586
sssS'lstm1'
p587
(dp588
I0
(dp589
g6
g7
(g11
S'\xf5:\x9d<'
p590
tp591
Rp592
sg17
g7
(g11
S'\xf9!\x90\xbc'
p593
tp594
Rp595
ssI1
(dp596
g6
g7
(g11
S'\xb0\x00\n;'
p597
tp598
Rp599
sg17
g7
(g11
S'7\xef\xd9\xba'
p600
tp601
Rp602
ssI2
(dp603
g6
g7
(g11
S'\x94xH<'
p604
tp605
Rp606
sg17
g7
(g11
S'\xd1\xbfQ\xbc'
p607
tp608
Rp609
ssss.